target datalayout = "e-m:e-p270:32:32-p271:32:32-p272:64:64-i64:64-i128:128-f80:128-n8:16:32:64-S128"
target triple = "x86_64-pc-linux-gnu"

%struct._GdkRGBA = type { double, double, double, double }

; Function Attrs: nounwind uwtable
define ptr @dtgtk_gradient_slider_multivalue_new_with_color_and_name(ptr noundef byval(%struct._GdkRGBA) align 8 %0, ptr noundef byval(%struct._GdkRGBA) align 8 %1, i32 noundef %2, ptr noundef %3) #0 {
  %5 = alloca i32, align 4
  %6 = alloca ptr, align 8
  %7 = alloca ptr, align 8
  store i32 %2, ptr %5, align 4, !tbaa !13
  store ptr %3, ptr %6, align 8, !tbaa !52
  call void @llvm.lifetime.start.p0(i64 8, ptr %7) #11
  %8 = load i32, ptr %5, align 4, !tbaa !13
  %9 = call ptr @dtgtk_gradient_slider_multivalue_new_with_color(ptr noundef byval(%struct._GdkRGBA) align 8 %0, ptr noundef byval(%struct._GdkRGBA) align 8 %1, i32 noundef %8)
  %10 = call i64 @gtk_widget_get_type() #12
  %11 = call ptr @g_type_check_instance_cast(ptr noundef %9, i64 noundef %10)
  store ptr %11, ptr %7, align 8, !tbaa !54
  %12 = load ptr, ptr %6, align 8, !tbaa !52
  %13 = icmp ne ptr %12, null
  br i1 %13, label %14, label %17

14:                                               ; preds = %4
  %15 = load ptr, ptr %7, align 8, !tbaa !54
  %16 = load ptr, ptr %6, align 8, !tbaa !52
  call void @gtk_widget_set_name(ptr noundef %15, ptr noundef %16)
  br label %17

17:                                               ; preds = %14, %4
  %18 = load ptr, ptr %7, align 8, !tbaa !54
  call void @llvm.lifetime.end.p0(i64 8, ptr %7) #11
  ret ptr %18
}