; Function Attrs: nounwind uwtable
define ptr @dtgtk_gradient_slider_multivalue_new_with_color_and_name(ptr noundef readonly byval(%struct._GdkRGBA) align 8 captures(none) %0, ptr noundef readonly byval(%struct._GdkRGBA) align 8 captures(none) %1, i32 noundef %2, ptr noundef %3) local_unnamed_addr #0 {
  %5 = tail call ptr @dtgtk_gradient_slider_multivalue_new_with_color(ptr noundef nonnull byval(%struct._GdkRGBA) align 8 %0, ptr noundef nonnull byval(%struct._GdkRGBA) align 8 %1, i32 noundef %2)
  %6 = tail call i64 @gtk_widget_get_type() #15
  %7 = tail call ptr @g_type_check_instance_cast(ptr noundef %5, i64 noundef %6) #14
  %.not = icmp eq ptr %3, null
  br i1 %.not, label %9, label %8

8:                                                ; preds = %4
  tail call void @gtk_widget_set_name(ptr noundef %7, ptr noundef nonnull %3) #14
  br label %9

9:                                                ; preds = %8, %4
  ret ptr %7
}